; Function Attrs: mustprogress uwtable
define void @_ZN9grpc_core8Executor3RunEP12grpc_closureN4absl12lts_202308026StatusENS_12ExecutorTypeENS_15ExecutorJobTypeE(ptr noundef %closure, ptr nocapture noundef readonly %error, i32 noundef %executor_type, i32 noundef %job_type) local_unnamed_addr #3 align 2 personality ptr @__gxx_personality_v0 {
entry:
  %agg.tmp = alloca %"class.absl::lts_20230802::Status", align 8
  %conv = sext i32 %executor_type to i64
  %conv1 = sext i32 %job_type to i64
  %arrayidx2 = getelementptr inbounds [2 x [2 x ptr]], ptr @_ZN9grpc_core12_GLOBAL__N_121executor_enqueue_fns_E, i64 0, i64 %conv, i64 %conv1
  %0 = load ptr, ptr %arrayidx2, align 8
  %1 = load i64, ptr %error, align 8
  store i64 %1, ptr %agg.tmp, align 8
  %and.i.i.i = and i64 %1, 1
  %cmp.i.i.i = icmp eq i64 %and.i.i.i, 0
  br i1 %cmp.i.i.i, label %_ZN4absl12lts_202308026StatusC2ERKS1_.exit, label %if.then.i.i

if.then.i.i:                                      ; preds = %entry
  %sub.i.i.i = add nsw i64 %1, -1
  %2 = inttoptr i64 %sub.i.i.i to ptr
  %3 = atomicrmw add ptr %2, i32 1 monotonic, align 4
  br label %_ZN4absl12lts_202308026StatusC2ERKS1_.exit

_ZN4absl12lts_202308026StatusC2ERKS1_.exit:       ; preds = %entry, %if.then.i.i
  invoke void %0(ptr noundef %closure, ptr noundef nonnull %agg.tmp)
          to label %invoke.cont unwind label %lpad

invoke.cont:                                      ; preds = %_ZN4absl12lts_202308026StatusC2ERKS1_.exit
  %4 = load i64, ptr %agg.tmp, align 8
  %and.i.i.i1 = and i64 %4, 1
  %cmp.i.i.i2 = icmp eq i64 %and.i.i.i1, 0
  br i1 %cmp.i.i.i2, label %_ZN4absl12lts_202308026StatusD2Ev.exit, label %if.then.i.i3

if.then.i.i3:                                     ; preds = %invoke.cont
  invoke void @_ZN4absl12lts_202308026Status15UnrefNonInlinedEm(i64 noundef %4)
          to label %_ZN4absl12lts_202308026StatusD2Ev.exit unwind label %terminate.lpad.i

terminate.lpad.i:                                 ; preds = %if.then.i.i3
  %5 = landingpad { ptr, i32 }
          catch ptr null
  %6 = extractvalue { ptr, i32 } %5, 0
  call void @__clang_call_terminate(ptr %6) #21
  unreachable

_ZN4absl12lts_202308026StatusD2Ev.exit:           ; preds = %invoke.cont, %if.then.i.i3
  ret void

lpad:                                             ; preds = %_ZN4absl12lts_202308026StatusC2ERKS1_.exit
  %7 = landingpad { ptr, i32 }
          cleanup
  call void @_ZN4absl12lts_202308026StatusD2Ev(ptr noundef nonnull align 8 dereferenceable(8) %agg.tmp) #22
  resume { ptr, i32 } %7
}